Certificate:
    Data:
        Version: 3 (0x2)
        Serial Number: 2 (0x2)
        Signature Algorithm: sha512WithRSAEncryption
        Issuer: C=US, ST=California, L=Santa Clara, O=Filemaker, Inc., CN=FMI Certificate Authority
        Validity
            Not Before: Jun 22 18:20:39 2011 GMT
            Not After : Dec 31 00:00:00 2037 GMT
        Subject: C=US, ST=California, L=Santa Clara, O=Filemaker, Inc., CN=FMI Certificate Authority
        Subject Public Key Info:
            Public Key Algorithm: rsaEncryption
                Public-Key: (1024 bit)
                Modulus:
                    00:b1:6d:9c:31:c2:32:85:8a:47:7c:fb:5e:1e:11:
                    e0:1f:17:72:31:7d:29:3a:b5:78:fb:fe:e9:76:5a:
                    36:25:31:f1:3f:01:ff:5e:3d:dd:10:be:38:21:89:
                    2e:9e:ac:b7:cc:2b:2b:24:a9:09:13:33:87:ba:25:
                    b3:fd:4f:fd:1b:96:77:89:15:58:d0:b9:fc:ce:b3:
                    27:e4:72:c6:7e:c6:fd:38:2a:97:51:69:1c:ec:f5:
                    e5:63:49:01:df:a2:f2:34:d3:e9:61:10:65:1b:54:
                    2a:d1:c8:72:4a:61:8d:f5:5a:b5:36:ea:26:d5:2c:
                    c7:ab:7a:53:28:4b:81:35:77
                Exponent: 65537 (0x10001)
        X509v3 extensions:
            X509v3 Basic Constraints: 
                CA:FALSE
            Netscape Comment: 
                OpenSSL Generated Certificate
            X509v3 Subject Key Identifier: 
                E1:03:FD:28:77:3B:81:BE:6D:8E:E1:89:EE:B5:B1:AC:45:E6:BD:31
            X509v3 Authority Key Identifier: 
                keyid:97:A5:E9:E2:0B:EE:98:74:A5:CD:47:3D:41:95:61:D2:45:C5:00:22
                DirName:/C=US/ST=California/L=Santa Clara/O=Filemaker, Inc./CN=FMI Certificate Authority
                serial:01

    Signature Algorithm: sha512WithRSAEncryption
        67:ae:9a:0e:a7:03:cb:35:cb:1b:fb:11:29:aa:21:d9:6f:bd:
        87:dc:86:62:85:e5:05:2a:ef:75:b5:67:f9:da:54:3f:85:09:
        37:8c:62:88:67:68:6f:b7:e3:ed:75:73:50:63:a0:41:c6:93:
        71:3e:9d:a1:4b:f7:be:5f:75:c7:c8:32:9f:ad:f0:3f:cc:8f:
        4c:1a:8d:a8:e0:8b:fe:93:4c:11:49:91:73:f1:fb:54:30:37:
        5a:c2:30:cd:72:29:18:39:ba:b0:40:66:76:fd:48:25:a4:ff:
        d0:79:04:87:6a:af:34:5a:98:f6:f0:a7:ab:dc:d2:b0:cf:8e:
        ae:1e
-----BEGIN CERTIFICATE-----
MIIDYTCCAsqgAwIBAgIBAjANBgkqhkiG9w0BAQ0FADB2MQswCQYDVQQGEwJVUzET
MBEGA1UECBMKQ2FsaWZvcm5pYTEUMBIGA1UEBxMLU2FudGEgQ2xhcmExGDAWBgNV
BAoTD0ZpbGVtYWtlciwgSW5jLjEiMCAGA1UEAxMZRk1JIENlcnRpZmljYXRlIEF1
dGhvcml0eTAeFw0xMTA2MjIxODIwMzlaFw0zNzEyMzEwMDAwMDBaMHYxCzAJBgNV
BAYTAlVTMRMwEQYDVQQIEwpDYWxpZm9ybmlhMRQwEgYDVQQHEwtTYW50YSBDbGFy
YTEYMBYGA1UEChMPRmlsZW1ha2VyLCBJbmMuMSIwIAYDVQQDExlGTUkgQ2VydGlm
aWNhdGUgQXV0aG9yaXR5MIGfMA0GCSqGSIb3DQEBAQUAA4GNADCBiQKBgQCxbZwx
wjKFikd8+14eEeAfF3IxfSk6tXj7/ul2WjYlMfE/Af9ePd0QvjghiS6erLfMKysk
qQkTM4e6JbP9T/0blneJFVjQufzOsyfkcsZ+xv04KpdRaRzs9eVjSQHfovI00+lh
EGUbVCrRyHJKYY31WrU26ibVLMerelMoS4E1dwIDAQABo4H+MIH7MAkGA1UdEwQC
MAAwLAYJYIZIAYb4QgENBB8WHU9wZW5TU0wgR2VuZXJhdGVkIENlcnRpZmljYXRl
MB0GA1UdDgQWBBThA/0odzuBvm2O4YnutbGsRea9MTCBoAYDVR0jBIGYMIGVgBSX
peniC+6YdKXNRz1BlWHSRcUAIqF6pHgwdjELMAkGA1UEBhMCVVMxEzARBgNVBAgT
CkNhbGlmb3JuaWExFDASBgNVBAcTC1NhbnRhIENsYXJhMRgwFgYDVQQKEw9GaWxl
bWFrZXIsIEluYy4xIjAgBgNVBAMTGUZNSSBDZXJ0aWZpY2F0ZSBBdXRob3JpdHmC
AQEwDQYJKoZIhvcNAQENBQADgYEAZ66aDqcDyzXLG/sRKaoh2W+9h9yGYoXlBSrv
dbVn+dpUP4UJN4xiiGdob7fj7XVzUGOgQcaTcT6doUv3vl91x8gyn63wP8yPTBqN
qOCL/pNMEUmRc/H7VDA3WsIwzXIpGDm6sEBmdv1IJaT/0HkEh2qvNFqY9vCnq9zS
sM+Orh4=
-----END CERTIFICATE-----
-----BEGIN ENCRYPTED PRIVATE KEY-----
MIICxjBABgkqhkiG9w0BBQ0wMzAbBgkqhkiG9w0BBQwwDgQIn+s66/W34ZUCAggA
MBQGCCqGSIb3DQMHBAgAefnJ+WWzZASCAoA9lG5q7ylFTE6heq8xRD13pg/24GyK
fMaT9RjMx9qccP9DEM0IgKhK9abz27HpaMZ7V3qMDmfbszHMKSZyX0VLXcoc8ffW
dhq2bvVvV1s6jBBlUVHlhWLiMUlgHK1QvKk7KAldDvPL1zTZisGwj68zjE8fiJym
RFoX11bZr+d54KXXsp2hKYSsC2laHiqV5wuvyWV2azLcghunOpG2vE6OHQ2MI5V1
7OA8hU+VNDGzNT200Iq9oObqFDNOu7zrO8uVkyNgjFoc3iAEjPIvQW8qfd3DGDh1
Cl9KFuHICxyl6iLXRH1E6myQcWzWtS0hGszr/jVGNK71d6Ck0nypC293BVNgCCsv
6xF0tEp0bf0WuQaWIDfxAVuSydQntPaFZRYm7pCzvtklKBuB8ZLsNaajGUTQp9Qm
aee/7XXn951Ov1f5RMsSGKX8j4Wr9topIaMlY1QcnbRta5JWw6S+J5noYhWZnDTB
zJ4wOhN5mAxD9IYWTF74LVm0Pcw0pKhRSyUeNTvwF/8NUyWmXKhP3juVpJSYuEwd
7lyxQZ5JLNWccszIE9ncc6kQfKBDWP1gpBe1Nz5Nd/S1WtHZ5E6iPnEBsTCV8AWi
aCFLxfbJrygD++GuHQPFtz6SdHNNeboSUcfLjTytBR6LrfvRARRHab0n7h/pS5ux
vY19Z51sATs964nQNbMdylFbrpq7inDs6X4nlF6S8GK81TpjLLHVtCVNhsArXfYi
QEKLaY7AnMTQ5DYTXt99F3THJAvLFKP+hkigTC88upK/8icNrsgvqhofWTMKs7Cp
f0HmDztYvnzrHv/T+l21Pdl7wQynN+vOyAh9ahyRC//giBdYK5vmi17k
-----END ENCRYPTED PRIVATE KEY-----
-----BEGIN CERTIFICATE REQUEST-----
MIIBtjCCAR8CAQAwdjELMAkGA1UEBhMCVVMxEzARBgNVBAgTCkNhbGlmb3JuaWEx
FDASBgNVBAcTC1NhbnRhIENsYXJhMRgwFgYDVQQKEw9GaWxlbWFrZXIsIEluYy4x
IjAgBgNVBAMTGUZNSSBDZXJ0aWZpY2F0ZSBBdXRob3JpdHkwgZ8wDQYJKoZIhvcN
AQEBBQADgY0AMIGJAoGBALFtnDHCMoWKR3z7Xh4R4B8XcjF9KTq1ePv+6XZaNiUx
8T8B/1493RC+OCGJLp6st8wrKySpCRMzh7ols/1P/RuWd4kVWNC5/M6zJ+Ryxn7G
/Tgql1FpHOz15WNJAd+i8jTT6WEQZRtUKtHIckphjfVatTbqJtUsx6t6UyhLgTV3
AgMBAAGgADANBgkqhkiG9w0BAQUFAAOBgQB+3lP7jf4mE0BR/+t2Uf16+mGl4WjR
5IfxPRv9cKddrdCjI9R3ALroU6X84sqgVdfiy9AMzCCz+h+VMaTJ82MaLRextxpf
YOLQl2FkO6372A+SCG4/4O1OVLnBE28TgBGMf7Mc8o3EsQM7j8RMfCJWDvib9D1c
7fMV21Bo60CufQ==
-----END CERTIFICATE REQUEST-----
